; ModuleID = '32/2048.c'
source_filename = "32/2048.c"
target datalayout = "e-m:e-p270:32:32-p271:32:32-p272:64:64-i64:64-f80:128-n8:16:32:64-S128"
target triple = "x86_64-pc-linux-gnu"

@.str = private unnamed_addr constant [3 x i8] c"%d\00", align 1
@.str.1 = private unnamed_addr constant [5 x i8] c"%s%s\00", align 1
@.str.2 = private unnamed_addr constant [2 x i8] c"0\00", align 1
@.str.3 = private unnamed_addr constant [2 x i8] c"\0A\00", align 1

; Function Attrs: noinline nounwind uwtable
define dso_local i32 @main() #0 {
  %1 = alloca i32, align 4
  %2 = alloca i32, align 4
  %3 = alloca i32, align 4
  %4 = alloca i32, align 4
  %5 = alloca i32, align 4
  %6 = alloca i32, align 4
  %7 = alloca [128 x i32], align 16
  %8 = alloca [128 x i32], align 16
  %9 = alloca [128 x i8], align 16
  %10 = alloca [128 x i8], align 16
  store i32 0, i32* %1, align 4
  store i32 0, i32* %6, align 4
  %11 = call i32 (i8*, ...) @__isoc99_scanf(i8* getelementptr inbounds ([3 x i8], [3 x i8]* @.str, i64 0, i64 0), i32* %2)
  br label %12

12:                                               ; preds = %164, %0
  %13 = load i32, i32* %2, align 4
  %14 = add nsw i32 %13, -1
  store i32 %14, i32* %2, align 4
  %15 = icmp ne i32 %13, 0
  br i1 %15, label %16, label %166

16:                                               ; preds = %12
  store i32 0, i32* %3, align 4
  br label %17

17:                                               ; preds = %27, %16
  %18 = load i32, i32* %3, align 4
  %19 = icmp slt i32 %18, 128
  br i1 %19, label %20, label %30

20:                                               ; preds = %17
  %21 = load i32, i32* %3, align 4
  %22 = sext i32 %21 to i64
  %23 = getelementptr inbounds [128 x i32], [128 x i32]* %7, i64 0, i64 %22
  store i32 0, i32* %23, align 4
  %24 = load i32, i32* %3, align 4
  %25 = sext i32 %24 to i64
  %26 = getelementptr inbounds [128 x i32], [128 x i32]* %8, i64 0, i64 %25
  store i32 0, i32* %26, align 4
  br label %27

27:                                               ; preds = %20
  %28 = load i32, i32* %3, align 4
  %29 = add nsw i32 %28, 1
  store i32 %29, i32* %3, align 4
  br label %17

30:                                               ; preds = %17
  %31 = getelementptr inbounds [128 x i8], [128 x i8]* %9, i64 0, i64 0
  %32 = getelementptr inbounds [128 x i8], [128 x i8]* %10, i64 0, i64 0
  %33 = call i32 (i8*, ...) @__isoc99_scanf(i8* getelementptr inbounds ([5 x i8], [5 x i8]* @.str.1, i64 0, i64 0), i8* %31, i8* %32)
  %34 = getelementptr inbounds [128 x i8], [128 x i8]* %9, i64 0, i64 0
  %35 = call i64 @strlen(i8* %34) #3
  %36 = trunc i64 %35 to i32
  store i32 %36, i32* %4, align 4
  %37 = getelementptr inbounds [128 x i8], [128 x i8]* %10, i64 0, i64 0
  %38 = call i64 @strlen(i8* %37) #3
  %39 = trunc i64 %38 to i32
  store i32 %39, i32* %5, align 4
  store i32 0, i32* %3, align 4
  br label %40

40:                                               ; preds = %57, %30
  %41 = load i32, i32* %3, align 4
  %42 = load i32, i32* %4, align 4
  %43 = icmp slt i32 %41, %42
  br i1 %43, label %44, label %60

44:                                               ; preds = %40
  %45 = load i32, i32* %4, align 4
  %46 = load i32, i32* %3, align 4
  %47 = sub nsw i32 %45, %46
  %48 = sub nsw i32 %47, 1
  %49 = sext i32 %48 to i64
  %50 = getelementptr inbounds [128 x i8], [128 x i8]* %9, i64 0, i64 %49
  %51 = load i8, i8* %50, align 1
  %52 = sext i8 %51 to i32
  %53 = sub nsw i32 %52, 48
  %54 = load i32, i32* %3, align 4
  %55 = sext i32 %54 to i64
  %56 = getelementptr inbounds [128 x i32], [128 x i32]* %7, i64 0, i64 %55
  store i32 %53, i32* %56, align 4
  br label %57

57:                                               ; preds = %44
  %58 = load i32, i32* %3, align 4
  %59 = add nsw i32 %58, 1
  store i32 %59, i32* %3, align 4
  br label %40

60:                                               ; preds = %40
  store i32 0, i32* %3, align 4
  br label %61

61:                                               ; preds = %78, %60
  %62 = load i32, i32* %3, align 4
  %63 = load i32, i32* %5, align 4
  %64 = icmp slt i32 %62, %63
  br i1 %64, label %65, label %81

65:                                               ; preds = %61
  %66 = load i32, i32* %5, align 4
  %67 = load i32, i32* %3, align 4
  %68 = sub nsw i32 %66, %67
  %69 = sub nsw i32 %68, 1
  %70 = sext i32 %69 to i64
  %71 = getelementptr inbounds [128 x i8], [128 x i8]* %10, i64 0, i64 %70
  %72 = load i8, i8* %71, align 1
  %73 = sext i8 %72 to i32
  %74 = sub nsw i32 %73, 48
  %75 = load i32, i32* %3, align 4
  %76 = sext i32 %75 to i64
  %77 = getelementptr inbounds [128 x i32], [128 x i32]* %8, i64 0, i64 %76
  store i32 %74, i32* %77, align 4
  br label %78

78:                                               ; preds = %65
  %79 = load i32, i32* %3, align 4
  %80 = add nsw i32 %79, 1
  store i32 %80, i32* %3, align 4
  br label %61

81:                                               ; preds = %61
  store i32 0, i32* %3, align 4
  br label %82

82:                                               ; preds = %127, %81
  %83 = load i32, i32* %3, align 4
  %84 = load i32, i32* %4, align 4
  %85 = icmp slt i32 %83, %84
  br i1 %85, label %86, label %130

86:                                               ; preds = %82
  %87 = load i32, i32* %3, align 4
  %88 = sext i32 %87 to i64
  %89 = getelementptr inbounds [128 x i32], [128 x i32]* %7, i64 0, i64 %88
  %90 = load i32, i32* %89, align 4
  %91 = load i32, i32* %3, align 4
  %92 = sext i32 %91 to i64
  %93 = getelementptr inbounds [128 x i32], [128 x i32]* %8, i64 0, i64 %92
  %94 = load i32, i32* %93, align 4
  %95 = icmp sge i32 %90, %94
  br i1 %95, label %96, label %106

96:                                               ; preds = %86
  %97 = load i32, i32* %3, align 4
  %98 = sext i32 %97 to i64
  %99 = getelementptr inbounds [128 x i32], [128 x i32]* %8, i64 0, i64 %98
  %100 = load i32, i32* %99, align 4
  %101 = load i32, i32* %3, align 4
  %102 = sext i32 %101 to i64
  %103 = getelementptr inbounds [128 x i32], [128 x i32]* %7, i64 0, i64 %102
  %104 = load i32, i32* %103, align 4
  %105 = sub nsw i32 %104, %100
  store i32 %105, i32* %103, align 4
  br label %126

106:                                              ; preds = %86
  %107 = load i32, i32* %3, align 4
  %108 = sext i32 %107 to i64
  %109 = getelementptr inbounds [128 x i32], [128 x i32]* %7, i64 0, i64 %108
  %110 = load i32, i32* %109, align 4
  %111 = load i32, i32* %3, align 4
  %112 = sext i32 %111 to i64
  %113 = getelementptr inbounds [128 x i32], [128 x i32]* %8, i64 0, i64 %112
  %114 = load i32, i32* %113, align 4
  %115 = sub nsw i32 %110, %114
  %116 = add nsw i32 %115, 10
  %117 = load i32, i32* %3, align 4
  %118 = sext i32 %117 to i64
  %119 = getelementptr inbounds [128 x i32], [128 x i32]* %7, i64 0, i64 %118
  store i32 %116, i32* %119, align 4
  %120 = load i32, i32* %3, align 4
  %121 = add nsw i32 %120, 1
  %122 = sext i32 %121 to i64
  %123 = getelementptr inbounds [128 x i32], [128 x i32]* %7, i64 0, i64 %122
  %124 = load i32, i32* %123, align 4
  %125 = add nsw i32 %124, -1
  store i32 %125, i32* %123, align 4
  br label %126

126:                                              ; preds = %106, %96
  br label %127

127:                                              ; preds = %126
  %128 = load i32, i32* %3, align 4
  %129 = add nsw i32 %128, 1
  store i32 %129, i32* %3, align 4
  br label %82

130:                                              ; preds = %82
  store i32 0, i32* %6, align 4
  %131 = load i32, i32* %4, align 4
  %132 = sub nsw i32 %131, 1
  store i32 %132, i32* %3, align 4
  br label %133

133:                                              ; preds = %161, %130
  %134 = load i32, i32* %3, align 4
  %135 = icmp sge i32 %134, 0
  br i1 %135, label %136, label %164

136:                                              ; preds = %133
  %137 = load i32, i32* %3, align 4
  %138 = sext i32 %137 to i64
  %139 = getelementptr inbounds [128 x i32], [128 x i32]* %7, i64 0, i64 %138
  %140 = load i32, i32* %139, align 4
  %141 = icmp ne i32 %140, 0
  br i1 %141, label %142, label %143

142:                                              ; preds = %136
  store i32 1, i32* %6, align 4
  br label %143

143:                                              ; preds = %142, %136
  %144 = load i32, i32* %6, align 4
  %145 = icmp eq i32 %144, 1
  br i1 %145, label %146, label %152

146:                                              ; preds = %143
  %147 = load i32, i32* %3, align 4
  %148 = sext i32 %147 to i64
  %149 = getelementptr inbounds [128 x i32], [128 x i32]* %7, i64 0, i64 %148
  %150 = load i32, i32* %149, align 4
  %151 = call i32 (i8*, ...) @printf(i8* getelementptr inbounds ([3 x i8], [3 x i8]* @.str, i64 0, i64 0), i32 %150)
  br label %152

152:                                              ; preds = %146, %143
  %153 = load i32, i32* %6, align 4
  %154 = icmp eq i32 %153, 0
  br i1 %154, label %155, label %160

155:                                              ; preds = %152
  %156 = load i32, i32* %3, align 4
  %157 = icmp eq i32 %156, 0
  br i1 %157, label %158, label %160

158:                                              ; preds = %155
  %159 = call i32 (i8*, ...) @printf(i8* getelementptr inbounds ([2 x i8], [2 x i8]* @.str.2, i64 0, i64 0))
  br label %160

160:                                              ; preds = %158, %155, %152
  br label %161

161:                                              ; preds = %160
  %162 = load i32, i32* %3, align 4
  %163 = add nsw i32 %162, -1
  store i32 %163, i32* %3, align 4
  br label %133

164:                                              ; preds = %133
  %165 = call i32 (i8*, ...) @printf(i8* getelementptr inbounds ([2 x i8], [2 x i8]* @.str.3, i64 0, i64 0))
  br label %12

166:                                              ; preds = %12
  ret i32 0
}

declare dso_local i32 @__isoc99_scanf(i8*, ...) #1

; Function Attrs: nounwind readonly
declare dso_local i64 @strlen(i8*) #2

declare dso_local i32 @printf(i8*, ...) #1


!llvm.module.flags = !{!0}
!llvm.ident = !{!1}

!0 = !{i32 1, !"wchar_size", i32 4}
!1 = !{!"clang version 10.0.0-4ubuntu1 "}
